(lp1
(lp2
I7
aI0
aI0
aI0
aa(lp3
I18
aI0
aI0
aI0
aa(lp4
I3
aI0
aI0
aI0
aa(lp5
I9
aI0
aI0
aI0
aa(lp6
I0
aI0
aI0
aI0
aa(lp7
I8
aI0
aI0
aI0
aa(lp8
I4
aI0
aI0
aI0
aa(lp9
I0
aI0
aI0
aI0
aa(lp10
I11
aI0
aI0
aI0
aa(lp11
I13
aI0
aI0
aI0
aa(lp12
I6
aI0
aI0
aI0
aa(lp13
I4
aI0
aI0
aI0
aa(lp14
I6
aI0
aI0
aI0
aa(lp15
I3
aI0
aI0
aI0
aa(lp16
I12
aI0
aI0
aI0
aa(lp17
I8
aI0
aI0
aI0
aa(lp18
I5
aI0
aI0
aI0
aa(lp19
I4
aI0
aI0
aI0
aa(lp20
I7
aI0
aI0
aI0
aa(lp21
I12
aI0
aI0
aI0
aa(lp22
I11
aI0
aI0
aI0
aa(lp23
I6
aI0
aI0
aI0
aa(lp24
I13
aI0
aI0
aI0
aa(lp25
I6
aI0
aI0
aI0
aa(lp26
I1
aI0
aI0
aI0
aa(lp27
I10
aI0
aI0
aI0
aa(lp28
I13
aI0
aI0
aI0
aa(lp29
I9
aI0
aI0
aI0
aa(lp30
I12
aI0
aI0
aI0
aa(lp31
I3
aI0
aI0
aI0
aa(lp32
I8
aI0
aI0
aI0
aa(lp33
I2
aI0
aI0
aI0
aa(lp34
I7
aI0
aI0
aI0
aa(lp35
I3
aI0
aI0
aI0
aa(lp36
I4
aI0
aI0
aI0
aa(lp37
I6
aI0
aI0
aI0
aa(lp38
I3
aI0
aI0
aI0
aa(lp39
I9
aI0
aI0
aI0
aa(lp40
I4
aI0
aI0
aI0
aa(lp41
I6
aI0
aI0
aI0
aa(lp42
I9
aI0
aI0
aI0
aa(lp43
I3
aI0
aI0
aI0
aa(lp44
I10
aI0
aI0
aI0
aa(lp45
I3
aI0
aI0
aI0
aa(lp46
I14
aI0
aI0
aI0
aa(lp47
I3
aI0
aI0
aI0
aa(lp48
I10
aI0
aI0
aI0
aa(lp49
I4
aI0
aI0
aI0
aa(lp50
I16
aI0
aI0
aI0
aa(lp51
I5
aI0
aI0
aI0
aa(lp52
I12
aI0
aI0
aI0
aa(lp53
I8
aI0
aI0
aI0
aa(lp54
I3
aI0
aI0
aI0
aa(lp55
I9
aI0
aI0
aI0
aa(lp56
I14
aI0
aI0
aI0
aa(lp57
I5
aI0
aI0
aI0
aa(lp58
I0
aI0
aI0
aI0
aa(lp59
I8
aI0
aI0
aI0
aa(lp60
I11
aI0
aI0
aI0
aa(lp61
I8
aI0
aI0
aI0
aa(lp62
I0
aI0
aI0
aI0
aa(lp63
I11
aI0
aI0
aI0
aa(lp64
I5
aI0
aI0
aI0
aa(lp65
I20
aI0
aI0
aI0
aa(lp66
I12
aI0
aI0
aI0
aa(lp67
I4
aI0
aI0
aI0
aa(lp68
I14
aI0
aI0
aI0
aa(lp69
I5
aI0
aI0
aI0
aa(lp70
I14
aI0
aI0
aI0
aa(lp71
I2
aI0
aI0
aI0
aa(lp72
I11
aI0
aI0
aI0
aa(lp73
I4
aI0
aI0
aI0
aa(lp74
I11
aI0
aI0
aI0
aa(lp75
I5
aI0
aI0
aI0
aa(lp76
I10
aI0
aI0
aI0
aa(lp77
I22
aI0
aI0
aI0
aa(lp78
I7
aI0
aI0
aI0
aa(lp79
I3
aI0
aI0
aI0
aa(lp80
I2
aI0
aI0
aI0
aa(lp81
I10
aI0
aI0
aI0
aa(lp82
I17
aI0
aI0
aI0
aa(lp83
I3
aI0
aI0
aI0
aa(lp84
I6
aI0
aI0
aI0
aa(lp85
I4
aI0
aI0
aI0
aa(lp86
I3
aI0
aI0
aI0
aa(lp87
I9
aI0
aI0
aI0
aa(lp88
I3
aI0
aI0
aI0
aa(lp89
I1
aI0
aI0
aI0
aa(lp90
I8
aI0
aI0
aI0
aa(lp91
I5
aI0
aI0
aI0
aa(lp92
I13
aI0
aI0
aI0
aa(lp93
I9
aI0
aI0
aI0
aa(lp94
I6
aI0
aI0
aI0
aa(lp95
I9
aI0
aI0
aI0
aa(lp96
I4
aI0
aI0
aI0
aa(lp97
I5
aI0
aI0
aI0
aa(lp98
I9
aI0
aI0
aI0
aa(lp99
I4
aI0
aI0
aI0
aa(lp100
I12
aI0
aI0
aI0
aa(lp101
I4
aI0
aI0
aI0
aa(lp102
I5
aI0
aI0
aI0
aa(lp103
I4
aI0
aI0
aI0
aa(lp104
I7
aI0
aI0
aI0
aa(lp105
I7
aI0
aI0
aI0
aa(lp106
I6
aI0
aI0
aI0
aa(lp107
I25
aI0
aI0
aI0
aa(lp108
I10
aI0
aI0
aI0
aa(lp109
I10
aI0
aI0
aI0
aa(lp110
I21
aI0
aI0
aI0
aa(lp111
I3
aI0
aI0
aI0
aa(lp112
I12
aI0
aI0
aI0
aa(lp113
I9
aI0
aI0
aI0
aa(lp114
I6
aI0
aI0
aI0
aa(lp115
I7
aI0
aI0
aI0
aa(lp116
I13
aI0
aI0
aI0
aa(lp117
I3
aI0
aI0
aI0
aa(lp118
I1
aI0
aI0
aI0
aa(lp119
I8
aI0
aI0
aI0
aa(lp120
I6
aI0
aI0
aI0
aa(lp121
I6
aI0
aI0
aI0
aa(lp122
I8
aI0
aI0
aI0
aa(lp123
I4
aI0
aI0
aI0
aa(lp124
I20
aI0
aI0
aI0
aa(lp125
I14
aI0
aI0
aI0
aa(lp126
I2
aI0
aI0
aI0
aa(lp127
I8
aI0
aI0
aI0
aa(lp128
I12
aI0
aI0
aI0
aa(lp129
I5
aI0
aI0
aI0
aa(lp130
I6
aI0
aI0
aI0
aa(lp131
I6
aI0
aI0
aI0
aa(lp132
I3
aI0
aI0
aI0
aa(lp133
I13
aI0
aI0
aI0
aa(lp134
I0
aI0
aI0
aI0
aa(lp135
I4
aI0
aI0
aI0
aa(lp136
I13
aI0
aI0
aI0
aa(lp137
I18
aI0
aI0
aI0
aa(lp138
I0
aI0
aI0
aI0
aa(lp139
I3
aI0
aI0
aI0
aa(lp140
I3
aI0
aI0
aI0
aa(lp141
I0
aI0
aI0
aI0
aa(lp142
I2
aI0
aI0
aI0
aa(lp143
I6
aI0
aI0
aI0
aa(lp144
I4
aI0
aI0
aI0
aa(lp145
I5
aI0
aI0
aI0
aa(lp146
I12
aI0
aI0
aI0
aa(lp147
I4
aI0
aI0
aI0
aa(lp148
I6
aI0
aI0
aI0
aa(lp149
I17
aI0
aI0
aI0
aa(lp150
I3
aI0
aI0
aI0
aa(lp151
I9
aI0
aI0
aI0
aa(lp152
I3
aI0
aI0
aI0
aa(lp153
I3
aI0
aI0
aI0
aa(lp154
I7
aI0
aI0
aI0
aa(lp155
I15
aI0
aI0
aI0
aa(lp156
I8
aI0
aI0
aI0
aa(lp157
I3
aI0
aI0
aI0
aa(lp158
I3
aI0
aI0
aI0
aa(lp159
I18
aI0
aI0
aI0
aa(lp160
I5
aI0
aI0
aI0
aa(lp161
I7
aI0
aI0
aI0
aa(lp162
I21
aI0
aI0
aI0
aa(lp163
I5
aI0
aI0
aI0
aa(lp164
I2
aI0
aI0
aI0
aa(lp165
I4
aI0
aI0
aI0
aa(lp166
I2
aI0
aI0
aI0
aa(lp167
I5
aI0
aI0
aI0
aa(lp168
I4
aI0
aI0
aI0
aa(lp169
I14
aI0
aI0
aI0
aa(lp170
I5
aI0
aI0
aI0
aa(lp171
I5
aI0
aI0
aI0
aa(lp172
I2
aI0
aI0
aI0
aa(lp173
I3
aI0
aI0
aI0
aa(lp174
I19
aI0
aI0
aI0
aa(lp175
I4
aI0
aI0
aI0
aa(lp176
I3
aI0
aI0
aI0
aa(lp177
I2
aI0
aI0
aI0
aa(lp178
I3
aI0
aI0
aI0
aa(lp179
I9
aI0
aI0
aI0
aa(lp180
I8
aI0
aI0
aI0
aa(lp181
I7
aI0
aI0
aI0
aa(lp182
I3
aI0
aI0
aI0
aa(lp183
I8
aI0
aI0
aI0
aa(lp184
I10
aI0
aI0
aI0
aa(lp185
I5
aI0
aI0
aI0
aa(lp186
I0
aI0
aI0
aI0
aa(lp187
I2
aI0
aI0
aI0
aa(lp188
I12
aI0
aI0
aI0
aa(lp189
I20
aI0
aI0
aI0
aa(lp190
I5
aI0
aI0
aI0
aa(lp191
I9
aI0
aI0
aI0
aa(lp192
I15
aI0
aI0
aI0
aa.