(lp1
(lp2
I22
aI0
aI0
aI0
aa(lp3
I36
aI0
aI0
aI0
aa(lp4
I26
aI0
aI0
aI0
aa(lp5
I24
aI0
aI0
aI0
aa(lp6
I16
aI0
aI0
aI0
aa(lp7
I29
aI0
aI0
aI0
aa(lp8
I20
aI0
aI0
aI0
aa(lp9
I7
aI0
aI0
aI0
aa(lp10
I28
aI0
aI0
aI0
aa(lp11
I22
aI0
aI0
aI0
aa(lp12
I29
aI0
aI0
aI0
aa(lp13
I20
aI0
aI0
aI0
aa(lp14
I16
aI0
aI0
aI0
aa(lp15
I25
aI0
aI0
aI0
aa(lp16
I24
aI0
aI0
aI0
aa(lp17
I19
aI0
aI0
aI0
aa(lp18
I12
aI0
aI0
aI0
aa(lp19
I26
aI0
aI0
aI0
aa(lp20
I24
aI0
aI0
aI0
aa(lp21
I36
aI0
aI0
aI0
aa(lp22
I31
aI0
aI0
aI0
aa(lp23
I12
aI0
aI0
aI0
aa(lp24
I33
aI0
aI0
aI0
aa(lp25
I21
aI0
aI0
aI0
aa(lp26
I8
aI0
aI0
aI0
aa(lp27
I23
aI0
aI0
aI0
aa(lp28
I15
aI0
aI0
aI0
aa(lp29
I20
aI0
aI0
aI0
aa(lp30
I16
aI0
aI0
aI0
aa(lp31
I17
aI0
aI0
aI0
aa(lp32
I21
aI0
aI0
aI0
aa(lp33
I12
aI0
aI0
aI0
aa(lp34
I22
aI0
aI0
aI0
aa(lp35
I15
aI0
aI0
aI0
aa(lp36
I14
aI0
aI0
aI0
aa(lp37
I24
aI0
aI0
aI0
aa(lp38
I29
aI0
aI0
aI0
aa(lp39
I17
aI0
aI0
aI0
aa(lp40
I24
aI0
aI0
aI0
aa(lp41
I18
aI0
aI0
aI0
aa(lp42
I24
aI0
aI0
aI0
aa(lp43
I11
aI0
aI0
aI0
aa(lp44
I35
aI0
aI0
aI0
aa(lp45
I27
aI0
aI0
aI0
aa(lp46
I38
aI0
aI0
aI0
aa(lp47
I25
aI0
aI0
aI0
aa(lp48
I21
aI0
aI0
aI0
aa(lp49
I15
aI0
aI0
aI0
aa(lp50
I37
aI0
aI0
aI0
aa(lp51
I38
aI0
aI0
aI0
aa(lp52
I30
aI0
aI0
aI0
aa(lp53
I18
aI0
aI0
aI0
aa(lp54
I18
aI0
aI0
aI0
aa(lp55
I27
aI0
aI0
aI0
aa(lp56
I28
aI0
aI0
aI0
aa(lp57
I11
aI0
aI0
aI0
aa(lp58
I7
aI0
aI0
aI0
aa(lp59
I39
aI0
aI0
aI0
aa(lp60
I20
aI0
aI0
aI0
aa(lp61
I29
aI0
aI0
aI0
aa(lp62
I3
aI0
aI0
aI0
aa(lp63
I27
aI0
aI0
aI0
aa(lp64
I12
aI0
aI0
aI0
aa(lp65
I34
aI0
aI0
aI0
aa(lp66
I21
aI0
aI0
aI0
aa(lp67
I9
aI0
aI0
aI0
aa(lp68
I40
aI0
aI0
aI0
aa(lp69
I25
aI0
aI0
aI0
aa(lp70
I25
aI0
aI0
aI0
aa(lp71
I16
aI0
aI0
aI0
aa(lp72
I22
aI0
aI0
aI0
aa(lp73
I7
aI0
aI0
aI0
aa(lp74
I22
aI0
aI0
aI0
aa(lp75
I26
aI0
aI0
aI0
aa(lp76
I15
aI0
aI0
aI0
aa(lp77
I33
aI0
aI0
aI0
aa(lp78
I27
aI0
aI0
aI0
aa(lp79
I15
aI0
aI0
aI0
aa(lp80
I20
aI0
aI0
aI0
aa(lp81
I23
aI0
aI0
aI0
aa(lp82
I33
aI0
aI0
aI0
aa(lp83
I21
aI0
aI0
aI0
aa(lp84
I12
aI0
aI0
aI0
aa(lp85
I27
aI0
aI0
aI0
aa(lp86
I19
aI0
aI0
aI0
aa(lp87
I21
aI0
aI0
aI0
aa(lp88
I12
aI0
aI0
aI0
aa(lp89
I21
aI0
aI0
aI0
aa(lp90
I35
aI0
aI0
aI0
aa(lp91
I24
aI0
aI0
aI0
aa(lp92
I25
aI0
aI0
aI0
aa(lp93
I26
aI0
aI0
aI0
aa(lp94
I13
aI0
aI0
aI0
aa(lp95
I26
aI0
aI0
aI0
aa(lp96
I12
aI0
aI0
aI0
aa(lp97
I22
aI0
aI0
aI0
aa(lp98
I21
aI0
aI0
aI0
aa(lp99
I21
aI0
aI0
aI0
aa(lp100
I23
aI0
aI0
aI0
aa(lp101
I13
aI0
aI0
aI0
aa(lp102
I13
aI0
aI0
aI0
aa(lp103
I11
aI0
aI0
aI0
aa(lp104
I22
aI0
aI0
aI0
aa(lp105
I23
aI0
aI0
aI0
aa(lp106
I22
aI0
aI0
aI0
aa(lp107
I36
aI0
aI0
aI0
aa(lp108
I31
aI0
aI0
aI0
aa(lp109
I18
aI0
aI0
aI0
aa(lp110
I37
aI0
aI0
aI0
aa(lp111
I11
aI0
aI0
aI0
aa(lp112
I36
aI0
aI0
aI0
aa(lp113
I26
aI0
aI0
aI0
aa(lp114
I13
aI0
aI0
aI0
aa(lp115
I17
aI0
aI0
aI0
aa(lp116
I44
aI0
aI0
aI0
aa(lp117
I16
aI0
aI0
aI0
aa(lp118
I28
aI0
aI0
aI0
aa(lp119
I24
aI0
aI0
aI0
aa(lp120
I15
aI0
aI0
aI0
aa(lp121
I28
aI0
aI0
aI0
aa(lp122
I16
aI0
aI0
aI0
aa(lp123
I11
aI0
aI0
aI0
aa(lp124
I36
aI0
aI0
aI0
aa(lp125
I25
aI0
aI0
aI0
aa(lp126
I6
aI0
aI0
aI0
aa(lp127
I20
aI0
aI0
aI0
aa(lp128
I22
aI0
aI0
aI0
aa(lp129
I43
aI0
aI0
aI0
aa(lp130
I20
aI0
aI0
aI0
aa(lp131
I13
aI0
aI0
aI0
aa(lp132
I15
aI0
aI0
aI0
aa(lp133
I29
aI0
aI0
aI0
aa(lp134
I4
aI0
aI0
aI0
aa(lp135
I15
aI0
aI0
aI0
aa(lp136
I33
aI0
aI0
aI0
aa(lp137
I25
aI0
aI0
aI0
aa(lp138
I4
aI0
aI0
aI0
aa(lp139
I13
aI0
aI0
aI0
aa(lp140
I19
aI0
aI0
aI0
aa(lp141
I8
aI0
aI0
aI0
aa(lp142
I28
aI0
aI0
aI0
aa(lp143
I15
aI0
aI0
aI0
aa(lp144
I22
aI0
aI0
aI0
aa(lp145
I22
aI0
aI0
aI0
aa(lp146
I22
aI0
aI0
aI0
aa(lp147
I19
aI0
aI0
aI0
aa(lp148
I20
aI0
aI0
aI0
aa(lp149
I21
aI0
aI0
aI0
aa(lp150
I21
aI0
aI0
aI0
aa(lp151
I38
aI0
aI0
aI0
aa(lp152
I14
aI0
aI0
aI0
aa(lp153
I13
aI0
aI0
aI0
aa(lp154
I22
aI0
aI0
aI0
aa(lp155
I32
aI0
aI0
aI0
aa(lp156
I17
aI0
aI0
aI0
aa(lp157
I21
aI0
aI0
aI0
aa(lp158
I16
aI0
aI0
aI0
aa(lp159
I46
aI0
aI0
aI0
aa(lp160
I8
aI0
aI0
aI0
aa(lp161
I24
aI0
aI0
aI0
aa(lp162
I57
aI0
aI0
aI0
aa(lp163
I22
aI0
aI0
aI0
aa(lp164
I6
aI0
aI0
aI0
aa(lp165
I33
aI0
aI0
aI0
aa(lp166
I17
aI0
aI0
aI0
aa(lp167
I12
aI0
aI0
aI0
aa(lp168
I29
aI0
aI0
aI0
aa(lp169
I30
aI0
aI0
aI0
aa(lp170
I29
aI0
aI0
aI0
aa(lp171
I53
aI0
aI0
aI0
aa(lp172
I20
aI0
aI0
aI0
aa(lp173
I28
aI0
aI0
aI0
aa(lp174
I32
aI0
aI0
aI0
aa(lp175
I12
aI0
aI0
aI0
aa(lp176
I8
aI0
aI0
aI0
aa(lp177
I9
aI0
aI0
aI0
aa(lp178
I9
aI0
aI0
aI0
aa(lp179
I24
aI0
aI0
aI0
aa(lp180
I25
aI0
aI0
aI0
aa(lp181
I28
aI0
aI0
aI0
aa(lp182
I12
aI0
aI0
aI0
aa(lp183
I18
aI0
aI0
aI0
aa(lp184
I16
aI0
aI0
aI0
aa(lp185
I21
aI0
aI0
aI0
aa(lp186
I8
aI0
aI0
aI0
aa(lp187
I9
aI0
aI0
aI0
aa(lp188
I27
aI0
aI0
aI0
aa(lp189
I44
aI0
aI0
aI0
aa(lp190
I12
aI0
aI0
aI0
aa(lp191
I20
aI0
aI0
aI0
aa(lp192
I31
aI0
aI0
aI0
aa.