(lp1
(lp2
I25
aI0
aI0
aI0
aa(lp3
I45
aI0
aI0
aI0
aa(lp4
I29
aI0
aI0
aI0
aa(lp5
I26
aI0
aI0
aI0
aa(lp6
I14
aI0
aI0
aI0
aa(lp7
I29
aI0
aI0
aI0
aa(lp8
I25
aI0
aI0
aI0
aa(lp9
I12
aI0
aI0
aI0
aa(lp10
I31
aI0
aI0
aI0
aa(lp11
I28
aI0
aI0
aI0
aa(lp12
I28
aI0
aI0
aI0
aa(lp13
I25
aI0
aI0
aI0
aa(lp14
I15
aI0
aI0
aI0
aa(lp15
I29
aI0
aI0
aI0
aa(lp16
I30
aI0
aI0
aI0
aa(lp17
I24
aI0
aI0
aI0
aa(lp18
I12
aI0
aI0
aI0
aa(lp19
I28
aI0
aI0
aI0
aa(lp20
I29
aI0
aI0
aI0
aa(lp21
I45
aI0
aI0
aI0
aa(lp22
I31
aI0
aI0
aI0
aa(lp23
I16
aI0
aI0
aI0
aa(lp24
I29
aI0
aI0
aI0
aa(lp25
I25
aI0
aI0
aI0
aa(lp26
I7
aI0
aI0
aI0
aa(lp27
I22
aI0
aI0
aI0
aa(lp28
I26
aI0
aI0
aI0
aa(lp29
I22
aI0
aI0
aI0
aa(lp30
I19
aI0
aI0
aI0
aa(lp31
I13
aI0
aI0
aI0
aa(lp32
I22
aI0
aI0
aI0
aa(lp33
I12
aI0
aI0
aI0
aa(lp34
I28
aI0
aI0
aI0
aa(lp35
I16
aI0
aI0
aI0
aa(lp36
I17
aI0
aI0
aI0
aa(lp37
I20
aI0
aI0
aI0
aa(lp38
I26
aI0
aI0
aI0
aa(lp39
I19
aI0
aI0
aI0
aa(lp40
I22
aI0
aI0
aI0
aa(lp41
I21
aI0
aI0
aI0
aa(lp42
I21
aI0
aI0
aI0
aa(lp43
I11
aI0
aI0
aI0
aa(lp44
I33
aI0
aI0
aI0
aa(lp45
I20
aI0
aI0
aI0
aa(lp46
I40
aI0
aI0
aI0
aa(lp47
I21
aI0
aI0
aI0
aa(lp48
I19
aI0
aI0
aI0
aa(lp49
I15
aI0
aI0
aI0
aa(lp50
I34
aI0
aI0
aI0
aa(lp51
I36
aI0
aI0
aI0
aa(lp52
I28
aI0
aI0
aI0
aa(lp53
I23
aI0
aI0
aI0
aa(lp54
I17
aI0
aI0
aI0
aa(lp55
I24
aI0
aI0
aI0
aa(lp56
I26
aI0
aI0
aI0
aa(lp57
I12
aI0
aI0
aI0
aa(lp58
I8
aI0
aI0
aI0
aa(lp59
I38
aI0
aI0
aI0
aa(lp60
I22
aI0
aI0
aI0
aa(lp61
I29
aI0
aI0
aI0
aa(lp62
I5
aI0
aI0
aI0
aa(lp63
I26
aI0
aI0
aI0
aa(lp64
I15
aI0
aI0
aI0
aa(lp65
I39
aI0
aI0
aI0
aa(lp66
I23
aI0
aI0
aI0
aa(lp67
I11
aI0
aI0
aI0
aa(lp68
I43
aI0
aI0
aI0
aa(lp69
I27
aI0
aI0
aI0
aa(lp70
I24
aI0
aI0
aI0
aa(lp71
I18
aI0
aI0
aI0
aa(lp72
I21
aI0
aI0
aI0
aa(lp73
I8
aI0
aI0
aI0
aa(lp74
I19
aI0
aI0
aI0
aa(lp75
I22
aI0
aI0
aI0
aa(lp76
I16
aI0
aI0
aI0
aa(lp77
I35
aI0
aI0
aI0
aa(lp78
I32
aI0
aI0
aI0
aa(lp79
I12
aI0
aI0
aI0
aa(lp80
I24
aI0
aI0
aI0
aa(lp81
I24
aI0
aI0
aI0
aa(lp82
I32
aI0
aI0
aI0
aa(lp83
I19
aI0
aI0
aI0
aa(lp84
I11
aI0
aI0
aI0
aa(lp85
I23
aI0
aI0
aI0
aa(lp86
I18
aI0
aI0
aI0
aa(lp87
I22
aI0
aI0
aI0
aa(lp88
I11
aI0
aI0
aI0
aa(lp89
I15
aI0
aI0
aI0
aa(lp90
I36
aI0
aI0
aI0
aa(lp91
I17
aI0
aI0
aI0
aa(lp92
I25
aI0
aI0
aI0
aa(lp93
I26
aI0
aI0
aI0
aa(lp94
I11
aI0
aI0
aI0
aa(lp95
I29
aI0
aI0
aI0
aa(lp96
I9
aI0
aI0
aI0
aa(lp97
I19
aI0
aI0
aI0
aa(lp98
I21
aI0
aI0
aI0
aa(lp99
I20
aI0
aI0
aI0
aa(lp100
I24
aI0
aI0
aI0
aa(lp101
I13
aI0
aI0
aI0
aa(lp102
I12
aI0
aI0
aI0
aa(lp103
I12
aI0
aI0
aI0
aa(lp104
I21
aI0
aI0
aI0
aa(lp105
I24
aI0
aI0
aI0
aa(lp106
I26
aI0
aI0
aI0
aa(lp107
I36
aI0
aI0
aI0
aa(lp108
I26
aI0
aI0
aI0
aa(lp109
I22
aI0
aI0
aI0
aa(lp110
I45
aI0
aI0
aI0
aa(lp111
I11
aI0
aI0
aI0
aa(lp112
I37
aI0
aI0
aI0
aa(lp113
I23
aI0
aI0
aI0
aa(lp114
I13
aI0
aI0
aI0
aa(lp115
I21
aI0
aI0
aI0
aa(lp116
I47
aI0
aI0
aI0
aa(lp117
I14
aI0
aI0
aI0
aa(lp118
I14
aI0
aI0
aI0
aa(lp119
I35
aI0
aI0
aI0
aa(lp120
I14
aI0
aI0
aI0
aa(lp121
I24
aI0
aI0
aI0
aa(lp122
I15
aI0
aI0
aI0
aa(lp123
I12
aI0
aI0
aI0
aa(lp124
I35
aI0
aI0
aI0
aa(lp125
I24
aI0
aI0
aI0
aa(lp126
I5
aI0
aI0
aI0
aa(lp127
I22
aI0
aI0
aI0
aa(lp128
I17
aI0
aI0
aI0
aa(lp129
I38
aI0
aI0
aI0
aa(lp130
I21
aI0
aI0
aI0
aa(lp131
I14
aI0
aI0
aI0
aa(lp132
I17
aI0
aI0
aI0
aa(lp133
I32
aI0
aI0
aI0
aa(lp134
I5
aI0
aI0
aI0
aa(lp135
I14
aI0
aI0
aI0
aa(lp136
I33
aI0
aI0
aI0
aa(lp137
I23
aI0
aI0
aI0
aa(lp138
I5
aI0
aI0
aI0
aa(lp139
I12
aI0
aI0
aI0
aa(lp140
I12
aI0
aI0
aI0
aa(lp141
I11
aI0
aI0
aI0
aa(lp142
I25
aI0
aI0
aI0
aa(lp143
I16
aI0
aI0
aI0
aa(lp144
I23
aI0
aI0
aI0
aa(lp145
I27
aI0
aI0
aI0
aa(lp146
I24
aI0
aI0
aI0
aa(lp147
I16
aI0
aI0
aI0
aa(lp148
I21
aI0
aI0
aI0
aa(lp149
I22
aI0
aI0
aI0
aa(lp150
I16
aI0
aI0
aI0
aa(lp151
I45
aI0
aI0
aI0
aa(lp152
I15
aI0
aI0
aI0
aa(lp153
I11
aI0
aI0
aI0
aa(lp154
I21
aI0
aI0
aI0
aa(lp155
I37
aI0
aI0
aI0
aa(lp156
I18
aI0
aI0
aI0
aa(lp157
I22
aI0
aI0
aI0
aa(lp158
I19
aI0
aI0
aI0
aa(lp159
I48
aI0
aI0
aI0
aa(lp160
I9
aI0
aI0
aI0
aa(lp161
I21
aI0
aI0
aI0
aa(lp162
I53
aI0
aI0
aI0
aa(lp163
I19
aI0
aI0
aI0
aa(lp164
I8
aI0
aI0
aI0
aa(lp165
I34
aI0
aI0
aI0
aa(lp166
I16
aI0
aI0
aI0
aa(lp167
I12
aI0
aI0
aI0
aa(lp168
I40
aI0
aI0
aI0
aa(lp169
I28
aI0
aI0
aI0
aa(lp170
I30
aI0
aI0
aI0
aa(lp171
I47
aI0
aI0
aI0
aa(lp172
I21
aI0
aI0
aI0
aa(lp173
I26
aI0
aI0
aI0
aa(lp174
I34
aI0
aI0
aI0
aa(lp175
I9
aI0
aI0
aI0
aa(lp176
I9
aI0
aI0
aI0
aa(lp177
I8
aI0
aI0
aI0
aa(lp178
I10
aI0
aI0
aI0
aa(lp179
I27
aI0
aI0
aI0
aa(lp180
I31
aI0
aI0
aI0
aa(lp181
I24
aI0
aI0
aI0
aa(lp182
I14
aI0
aI0
aI0
aa(lp183
I19
aI0
aI0
aI0
aa(lp184
I17
aI0
aI0
aI0
aa(lp185
I13
aI0
aI0
aI0
aa(lp186
I7
aI0
aI0
aI0
aa(lp187
I11
aI0
aI0
aI0
aa(lp188
I28
aI0
aI0
aI0
aa(lp189
I44
aI0
aI0
aI0
aa(lp190
I14
aI0
aI0
aI0
aa(lp191
I25
aI0
aI0
aI0
aa(lp192
I34
aI0
aI0
aI0
aa.