(lp1
(lp2
I38
aI0
aI0
aI0
aa(lp3
I58
aI0
aI0
aI0
aa(lp4
I40
aI0
aI0
aI0
aa(lp5
I28
aI0
aI0
aI0
aa(lp6
I19
aI0
aI0
aI0
aa(lp7
I38
aI0
aI0
aI0
aa(lp8
I42
aI0
aI0
aI0
aa(lp9
I32
aI0
aI0
aI0
aa(lp10
I41
aI0
aI0
aI0
aa(lp11
I29
aI0
aI0
aI0
aa(lp12
I47
aI0
aI0
aI0
aa(lp13
I31
aI0
aI0
aI0
aa(lp14
I18
aI0
aI0
aI0
aa(lp15
I31
aI0
aI0
aI0
aa(lp16
I37
aI0
aI0
aI0
aa(lp17
I39
aI0
aI0
aI0
aa(lp18
I12
aI0
aI0
aI0
aa(lp19
I40
aI0
aI0
aI0
aa(lp20
I46
aI0
aI0
aI0
aa(lp21
I45
aI0
aI0
aI0
aa(lp22
I40
aI0
aI0
aI0
aa(lp23
I18
aI0
aI0
aI0
aa(lp24
I49
aI0
aI0
aI0
aa(lp25
I39
aI0
aI0
aI0
aa(lp26
I20
aI0
aI0
aI0
aa(lp27
I28
aI0
aI0
aI0
aa(lp28
I32
aI0
aI0
aI0
aa(lp29
I31
aI0
aI0
aI0
aa(lp30
I23
aI0
aI0
aI0
aa(lp31
I26
aI0
aI0
aI0
aa(lp32
I26
aI0
aI0
aI0
aa(lp33
I21
aI0
aI0
aI0
aa(lp34
I34
aI0
aI0
aI0
aa(lp35
I22
aI0
aI0
aI0
aa(lp36
I26
aI0
aI0
aI0
aa(lp37
I33
aI0
aI0
aI0
aa(lp38
I42
aI0
aI0
aI0
aa(lp39
I29
aI0
aI0
aI0
aa(lp40
I33
aI0
aI0
aI0
aa(lp41
I37
aI0
aI0
aI0
aa(lp42
I36
aI0
aI0
aI0
aa(lp43
I30
aI0
aI0
aI0
aa(lp44
I49
aI0
aI0
aI0
aa(lp45
I41
aI0
aI0
aI0
aa(lp46
I55
aI0
aI0
aI0
aa(lp47
I30
aI0
aI0
aI0
aa(lp48
I28
aI0
aI0
aI0
aa(lp49
I18
aI0
aI0
aI0
aa(lp50
I58
aI0
aI0
aI0
aa(lp51
I44
aI0
aI0
aI0
aa(lp52
I43
aI0
aI0
aI0
aa(lp53
I34
aI0
aI0
aI0
aa(lp54
I19
aI0
aI0
aI0
aa(lp55
I42
aI0
aI0
aI0
aa(lp56
I39
aI0
aI0
aI0
aa(lp57
I16
aI0
aI0
aI0
aa(lp58
I19
aI0
aI0
aI0
aa(lp59
I60
aI0
aI0
aI0
aa(lp60
I28
aI0
aI0
aI0
aa(lp61
I30
aI0
aI0
aI0
aa(lp62
I10
aI0
aI0
aI0
aa(lp63
I32
aI0
aI0
aI0
aa(lp64
I20
aI0
aI0
aI0
aa(lp65
I44
aI0
aI0
aI0
aa(lp66
I33
aI0
aI0
aI0
aa(lp67
I11
aI0
aI0
aI0
aa(lp68
I54
aI0
aI0
aI0
aa(lp69
I44
aI0
aI0
aI0
aa(lp70
I22
aI0
aI0
aI0
aa(lp71
I30
aI0
aI0
aI0
aa(lp72
I22
aI0
aI0
aI0
aa(lp73
I14
aI0
aI0
aI0
aa(lp74
I23
aI0
aI0
aI0
aa(lp75
I46
aI0
aI0
aI0
aa(lp76
I33
aI0
aI0
aI0
aa(lp77
I37
aI0
aI0
aI0
aa(lp78
I44
aI0
aI0
aI0
aa(lp79
I24
aI0
aI0
aI0
aa(lp80
I35
aI0
aI0
aI0
aa(lp81
I29
aI0
aI0
aI0
aa(lp82
I46
aI0
aI0
aI0
aa(lp83
I43
aI0
aI0
aI0
aa(lp84
I24
aI0
aI0
aI0
aa(lp85
I28
aI0
aI0
aI0
aa(lp86
I36
aI0
aI0
aI0
aa(lp87
I22
aI0
aI0
aI0
aa(lp88
I14
aI0
aI0
aI0
aa(lp89
I44
aI0
aI0
aI0
aa(lp90
I45
aI0
aI0
aI0
aa(lp91
I31
aI0
aI0
aI0
aa(lp92
I41
aI0
aI0
aI0
aa(lp93
I36
aI0
aI0
aI0
aa(lp94
I23
aI0
aI0
aI0
aa(lp95
I35
aI0
aI0
aI0
aa(lp96
I17
aI0
aI0
aI0
aa(lp97
I22
aI0
aI0
aI0
aa(lp98
I25
aI0
aI0
aI0
aa(lp99
I45
aI0
aI0
aI0
aa(lp100
I29
aI0
aI0
aI0
aa(lp101
I27
aI0
aI0
aI0
aa(lp102
I25
aI0
aI0
aI0
aa(lp103
I35
aI0
aI0
aI0
aa(lp104
I26
aI0
aI0
aI0
aa(lp105
I35
aI0
aI0
aI0
aa(lp106
I31
aI0
aI0
aI0
aa(lp107
I45
aI0
aI0
aI0
aa(lp108
I48
aI0
aI0
aI0
aa(lp109
I23
aI0
aI0
aI0
aa(lp110
I62
aI0
aI0
aI0
aa(lp111
I20
aI0
aI0
aI0
aa(lp112
I35
aI0
aI0
aI0
aa(lp113
I40
aI0
aI0
aI0
aa(lp114
I13
aI0
aI0
aI0
aa(lp115
I29
aI0
aI0
aI0
aa(lp116
I55
aI0
aI0
aI0
aa(lp117
I20
aI0
aI0
aI0
aa(lp118
I29
aI0
aI0
aI0
aa(lp119
I46
aI0
aI0
aI0
aa(lp120
I27
aI0
aI0
aI0
aa(lp121
I49
aI0
aI0
aI0
aa(lp122
I33
aI0
aI0
aI0
aa(lp123
I13
aI0
aI0
aI0
aa(lp124
I38
aI0
aI0
aI0
aa(lp125
I34
aI0
aI0
aI0
aa(lp126
I16
aI0
aI0
aI0
aa(lp127
I35
aI0
aI0
aI0
aa(lp128
I25
aI0
aI0
aI0
aa(lp129
I56
aI0
aI0
aI0
aa(lp130
I35
aI0
aI0
aI0
aa(lp131
I22
aI0
aI0
aI0
aa(lp132
I31
aI0
aI0
aI0
aa(lp133
I49
aI0
aI0
aI0
aa(lp134
I10
aI0
aI0
aI0
aa(lp135
I19
aI0
aI0
aI0
aa(lp136
I39
aI0
aI0
aI0
aa(lp137
I28
aI0
aI0
aI0
aa(lp138
I5
aI0
aI0
aI0
aa(lp139
I15
aI0
aI0
aI0
aa(lp140
I27
aI0
aI0
aI0
aa(lp141
I18
aI0
aI0
aI0
aa(lp142
I33
aI0
aI0
aI0
aa(lp143
I25
aI0
aI0
aI0
aa(lp144
I43
aI0
aI0
aI0
aa(lp145
I35
aI0
aI0
aI0
aa(lp146
I25
aI0
aI0
aI0
aa(lp147
I27
aI0
aI0
aI0
aa(lp148
I37
aI0
aI0
aI0
aa(lp149
I38
aI0
aI0
aI0
aa(lp150
I33
aI0
aI0
aI0
aa(lp151
I58
aI0
aI0
aI0
aa(lp152
I15
aI0
aI0
aI0
aa(lp153
I20
aI0
aI0
aI0
aa(lp154
I30
aI0
aI0
aI0
aa(lp155
I40
aI0
aI0
aI0
aa(lp156
I26
aI0
aI0
aI0
aa(lp157
I32
aI0
aI0
aI0
aa(lp158
I18
aI0
aI0
aI0
aa(lp159
I59
aI0
aI0
aI0
aa(lp160
I20
aI0
aI0
aI0
aa(lp161
I30
aI0
aI0
aI0
aa(lp162
I64
aI0
aI0
aI0
aa(lp163
I38
aI0
aI0
aI0
aa(lp164
I13
aI0
aI0
aI0
aa(lp165
I39
aI0
aI0
aI0
aa(lp166
I25
aI0
aI0
aI0
aa(lp167
I25
aI0
aI0
aI0
aa(lp168
I57
aI0
aI0
aI0
aa(lp169
I49
aI0
aI0
aI0
aa(lp170
I20
aI0
aI0
aI0
aa(lp171
I53
aI0
aI0
aI0
aa(lp172
I37
aI0
aI0
aI0
aa(lp173
I36
aI0
aI0
aI0
aa(lp174
I32
aI0
aI0
aI0
aa(lp175
I23
aI0
aI0
aI0
aa(lp176
I8
aI0
aI0
aI0
aa(lp177
I14
aI0
aI0
aI0
aa(lp178
I13
aI0
aI0
aI0
aa(lp179
I26
aI0
aI0
aI0
aa(lp180
I43
aI0
aI0
aI0
aa(lp181
I33
aI0
aI0
aI0
aa(lp182
I25
aI0
aI0
aI0
aa(lp183
I22
aI0
aI0
aI0
aa(lp184
I15
aI0
aI0
aI0
aa(lp185
I31
aI0
aI0
aI0
aa(lp186
I17
aI0
aI0
aI0
aa(lp187
I13
aI0
aI0
aI0
aa(lp188
I31
aI0
aI0
aI0
aa(lp189
I72
aI0
aI0
aI0
aa(lp190
I16
aI0
aI0
aI0
aa(lp191
I41
aI0
aI0
aI0
aa(lp192
I38
aI0
aI0
aI0
aa.